target datalayout = "e-m:e-p270:32:32-p271:32:32-p272:64:64-i64:64-i128:128-f80:128-n8:16:32:64-S128"
target triple = "x86_64-unknown-linux-gnu"

%"struct.icu_75::FormattedStringBuilder::Field" = type { i8 }
%"class.icu_75::MaybeStackArray" = type <{ ptr, i32, i8, [40 x i8], [3 x i8] }>
%"class.icu_75::number::impl::MutablePatternModifier" = type { %"class.icu_75::number::impl::MicroPropsGenerator", %"class.icu_75::number::impl::Modifier", %"class.icu_75::number::impl::SymbolProvider", i8, ptr, %"struct.icu_75::FormattedStringBuilder::Field", i32, i8, i8, ptr, i32, %"class.icu_75::number::impl::CurrencySymbols", ptr, i32, i32, ptr, %"class.icu_75::UnicodeString" }
%"class.icu_75::number::impl::MicroPropsGenerator" = type { ptr }
%"class.icu_75::number::impl::Modifier" = type { ptr }
%"class.icu_75::number::impl::SymbolProvider" = type { ptr }
%"class.icu_75::number::impl::CurrencySymbols" = type { [8 x i8], %"class.icu_75::CurrencyUnit", %"class.icu_75::CharString", %"class.icu_75::UnicodeString", %"class.icu_75::UnicodeString" }
%"class.icu_75::CurrencyUnit" = type { %"class.icu_75::MeasureUnit.base", [4 x i16], [4 x i8] }
%"class.icu_75::MeasureUnit.base" = type <{ %"class.icu_75::UObject", ptr, i16, i8 }>
%"class.icu_75::UObject" = type { ptr }
%"class.icu_75::CharString" = type { %"class.icu_75::MaybeStackArray", i32, [4 x i8] }
%"class.icu_75::UnicodeString" = type { %"class.icu_75::Replaceable", %"union.icu_75::UnicodeString::StackBufferOrFields" }
%"class.icu_75::Replaceable" = type { %"class.icu_75::UObject" }
%"union.icu_75::UnicodeString::StackBufferOrFields" = type { %struct.anon.0, [32 x i8] }
%struct.anon.0 = type { i16, i32, i32, ptr }
%"class.icu_75::Locale" = type <{ %"class.icu_75::UObject", [12 x i8], [6 x i8], [4 x i8], [2 x i8], i32, [4 x i8], ptr, [157 x i8], [3 x i8], ptr, i8, [7 x i8] }>
%"class.icu_75::DecimalFormatSymbols" = type <{ %"class.icu_75::UObject", [29 x %"class.icu_75::UnicodeString"], %"class.icu_75::UnicodeString", i32, [4 x i8], %"class.icu_75::Locale", [157 x i8], [157 x i8], [6 x i8], ptr, [3 x %"class.icu_75::UnicodeString"], [3 x %"class.icu_75::UnicodeString"], i8, i8, [9 x i8], [5 x i8] }>

@.str = private unnamed_addr constant [2 x i16] [i16 -3, i16 0], align 2

; Function Attrs: mustprogress uwtable
define linkonce_odr void @_ZNK6icu_7520DecimalFormatSymbols9getSymbolENS0_19ENumberFormatSymbolE(ptr noalias sret(%"class.icu_75::UnicodeString") align 8 %agg.result, ptr noundef nonnull align 8 dereferenceable(2883) %this, i32 noundef %symbol) #1 comdat align 2 {
entry:
  %result.ptr = alloca ptr, align 8
  %this.addr = alloca ptr, align 8
  %symbol.addr = alloca i32, align 4
  %strPtr = alloca ptr, align 8
  store ptr %agg.result, ptr %result.ptr, align 8
  store ptr %this, ptr %this.addr, align 8
  store i32 %symbol, ptr %symbol.addr, align 4
  %this1 = load ptr, ptr %this.addr, align 8
  %0 = load i32, ptr %symbol.addr, align 4
  %cmp = icmp slt i32 %0, 29
  br i1 %cmp, label %if.then, label %if.else

if.then:                                          ; preds = %entry
  %fSymbols = getelementptr inbounds %"class.icu_75::DecimalFormatSymbols", ptr %this1, i32 0, i32 1
  %1 = load i32, ptr %symbol.addr, align 4
  %idxprom = zext i32 %1 to i64
  %arrayidx = getelementptr inbounds [29 x %"class.icu_75::UnicodeString"], ptr %fSymbols, i64 0, i64 %idxprom
  store ptr %arrayidx, ptr %strPtr, align 8
  br label %if.end

if.else:                                          ; preds = %entry
  %fNoSymbol = getelementptr inbounds %"class.icu_75::DecimalFormatSymbols", ptr %this1, i32 0, i32 2
  store ptr %fNoSymbol, ptr %strPtr, align 8
  br label %if.end

if.end:                                           ; preds = %if.else, %if.then
  %2 = load ptr, ptr %strPtr, align 8
  call void @_ZN6icu_7513UnicodeStringC1ERKS0_(ptr noundef nonnull align 8 dereferenceable(64) %agg.result, ptr noundef nonnull align 8 dereferenceable(64) %2)
  ret void
}

; Function Attrs: mustprogress uwtable
define void @_ZNK6icu_756number4impl22MutablePatternModifier9getSymbolENS1_16AffixPatternTypeE(ptr noalias sret(%"class.icu_75::UnicodeString") align 8 %agg.result, ptr noundef nonnull align 8 dereferenceable(392) %this, i32 noundef %type) unnamed_addr #1 align 2 {
entry:
  %result.ptr = alloca ptr, align 8
  %this.addr = alloca ptr, align 8
  %type.addr = alloca i32, align 4
  %localStatus = alloca i32, align 4
  store ptr %agg.result, ptr %result.ptr, align 8
  store ptr %this, ptr %this.addr, align 8
  store i32 %type, ptr %type.addr, align 4
  %this1 = load ptr, ptr %this.addr, align 8
  store i32 0, ptr %localStatus, align 4
  %0 = load i32, ptr %type.addr, align 4
  switch i32 %0, label %sw.default [
    i32 -1, label %sw.bb
    i32 -2, label %sw.bb2
    i32 -3, label %sw.bb4
    i32 -4, label %sw.bb6
    i32 -5, label %sw.bb8
    i32 -6, label %sw.bb10
    i32 -7, label %sw.bb11
    i32 -8, label %sw.bb12
    i32 -9, label %sw.bb14
    i32 -10, label %sw.bb15
  ]

sw.bb:                                            ; preds = %entry
  %fSymbols = getelementptr inbounds %"class.icu_75::number::impl::MutablePatternModifier", ptr %this1, i32 0, i32 9
  %1 = load ptr, ptr %fSymbols, align 8
  call void @_ZNK6icu_7520DecimalFormatSymbols9getSymbolENS0_19ENumberFormatSymbolE(ptr sret(%"class.icu_75::UnicodeString") align 8 %agg.result, ptr noundef nonnull align 8 dereferenceable(2883) %1, i32 noundef 6)
  br label %return

sw.bb2:                                           ; preds = %entry
  %fSymbols3 = getelementptr inbounds %"class.icu_75::number::impl::MutablePatternModifier", ptr %this1, i32 0, i32 9
  %2 = load ptr, ptr %fSymbols3, align 8
  call void @_ZNK6icu_7520DecimalFormatSymbols9getSymbolENS0_19ENumberFormatSymbolE(ptr sret(%"class.icu_75::UnicodeString") align 8 %agg.result, ptr noundef nonnull align 8 dereferenceable(2883) %2, i32 noundef 7)
  br label %return

sw.bb4:                                           ; preds = %entry
  %fSymbols5 = getelementptr inbounds %"class.icu_75::number::impl::MutablePatternModifier", ptr %this1, i32 0, i32 9
  %3 = load ptr, ptr %fSymbols5, align 8
  call void @_ZNK6icu_7520DecimalFormatSymbols9getSymbolENS0_19ENumberFormatSymbolE(ptr sret(%"class.icu_75::UnicodeString") align 8 %agg.result, ptr noundef nonnull align 8 dereferenceable(2883) %3, i32 noundef 28)
  br label %return

sw.bb6:                                           ; preds = %entry
  %fSymbols7 = getelementptr inbounds %"class.icu_75::number::impl::MutablePatternModifier", ptr %this1, i32 0, i32 9
  %4 = load ptr, ptr %fSymbols7, align 8
  call void @_ZNK6icu_7520DecimalFormatSymbols9getSymbolENS0_19ENumberFormatSymbolE(ptr sret(%"class.icu_75::UnicodeString") align 8 %agg.result, ptr noundef nonnull align 8 dereferenceable(2883) %4, i32 noundef 3)
  br label %return

sw.bb8:                                           ; preds = %entry
  %fSymbols9 = getelementptr inbounds %"class.icu_75::number::impl::MutablePatternModifier", ptr %this1, i32 0, i32 9
  %5 = load ptr, ptr %fSymbols9, align 8
  call void @_ZNK6icu_7520DecimalFormatSymbols9getSymbolENS0_19ENumberFormatSymbolE(ptr sret(%"class.icu_75::UnicodeString") align 8 %agg.result, ptr noundef nonnull align 8 dereferenceable(2883) %5, i32 noundef 12)
  br label %return

sw.bb10:                                          ; preds = %entry
  call void @_ZNK6icu_756number4impl22MutablePatternModifier29getCurrencySymbolForUnitWidthER10UErrorCode(ptr sret(%"class.icu_75::UnicodeString") align 8 %agg.result, ptr noundef nonnull align 8 dereferenceable(392) %this1, ptr noundef nonnull align 4 dereferenceable(4) %localStatus)
  br label %return

sw.bb11:                                          ; preds = %entry
  %fCurrencySymbols = getelementptr inbounds %"class.icu_75::number::impl::MutablePatternModifier", ptr %this1, i32 0, i32 11
  call void @_ZNK6icu_756number4impl15CurrencySymbols21getIntlCurrencySymbolER10UErrorCode(ptr sret(%"class.icu_75::UnicodeString") align 8 %agg.result, ptr noundef nonnull align 8 dereferenceable(232) %fCurrencySymbols, ptr noundef nonnull align 4 dereferenceable(4) %localStatus)
  br label %return

sw.bb12:                                          ; preds = %entry
  %fCurrencySymbols13 = getelementptr inbounds %"class.icu_75::number::impl::MutablePatternModifier", ptr %this1, i32 0, i32 11
  %fPlural = getelementptr inbounds %"class.icu_75::number::impl::MutablePatternModifier", ptr %this1, i32 0, i32 14
  %6 = load i32, ptr %fPlural, align 4
  call void @_ZNK6icu_756number4impl15CurrencySymbols13getPluralNameENS_14StandardPlural4FormER10UErrorCode(ptr sret(%"class.icu_75::UnicodeString") align 8 %agg.result, ptr noundef nonnull align 8 dereferenceable(232) %fCurrencySymbols13, i32 noundef %6, ptr noundef nonnull align 4 dereferenceable(4) %localStatus)
  br label %return

sw.bb14:                                          ; preds = %entry
  call void @_ZN6icu_7513UnicodeStringC1EPKDs(ptr noundef nonnull align 8 dereferenceable(64) %agg.result, ptr noundef @.str)
  br label %return

sw.bb15:                                          ; preds = %entry
  call void @_ZN6icu_7513UnicodeStringC1EPKDs(ptr noundef nonnull align 8 dereferenceable(64) %agg.result, ptr noundef @.str)
  br label %return

sw.default:                                       ; preds = %entry
  call void @abort() #14
  unreachable

return:                                           ; preds = %sw.bb15, %sw.bb14, %sw.bb12, %sw.bb11, %sw.bb10, %sw.bb8, %sw.bb6, %sw.bb4, %sw.bb2, %sw.bb
  ret void
}