; Function Attrs: mustprogress uwtable
define void @_ZNK6icu_756number4impl22MutablePatternModifier9getSymbolENS1_16AffixPatternTypeE(ptr noalias sret(%"class.icu_75::UnicodeString") align 8 %agg.result, ptr noundef nonnull align 8 dereferenceable(392) %this, i32 noundef %type) unnamed_addr #1 align 2 {
entry:
  %localStatus = alloca i32, align 4
  store i32 0, ptr %localStatus, align 4
  switch i32 %type, label %sw.default [
    i32 -1, label %sw.bb
    i32 -2, label %sw.bb2
    i32 -3, label %sw.bb4
    i32 -4, label %sw.bb6
    i32 -5, label %sw.bb8
    i32 -6, label %sw.bb10
    i32 -7, label %sw.bb11
    i32 -8, label %sw.bb12
    i32 -9, label %sw.bb14
    i32 -10, label %sw.bb15
  ]

sw.bb:                                            ; preds = %entry
  %fSymbols = getelementptr inbounds i8, ptr %this, i64 56
  %0 = load ptr, ptr %fSymbols, align 8
  %arrayidx.i = getelementptr inbounds i8, ptr %0, i64 392
  tail call void @_ZN6icu_7513UnicodeStringC1ERKS0_(ptr noundef nonnull align 8 dereferenceable(64) %agg.result, ptr noundef nonnull align 8 dereferenceable(64) %arrayidx.i)
  br label %return

sw.bb2:                                           ; preds = %entry
  %fSymbols3 = getelementptr inbounds i8, ptr %this, i64 56
  %1 = load ptr, ptr %fSymbols3, align 8
  %arrayidx.i2 = getelementptr inbounds i8, ptr %1, i64 456
  tail call void @_ZN6icu_7513UnicodeStringC1ERKS0_(ptr noundef nonnull align 8 dereferenceable(64) %agg.result, ptr noundef nonnull align 8 dereferenceable(64) %arrayidx.i2)
  br label %return

sw.bb4:                                           ; preds = %entry
  %fSymbols5 = getelementptr inbounds i8, ptr %this, i64 56
  %2 = load ptr, ptr %fSymbols5, align 8
  %arrayidx.i5 = getelementptr inbounds i8, ptr %2, i64 1800
  tail call void @_ZN6icu_7513UnicodeStringC1ERKS0_(ptr noundef nonnull align 8 dereferenceable(64) %agg.result, ptr noundef nonnull align 8 dereferenceable(64) %arrayidx.i5)
  br label %return

sw.bb6:                                           ; preds = %entry
  %fSymbols7 = getelementptr inbounds i8, ptr %this, i64 56
  %3 = load ptr, ptr %fSymbols7, align 8
  %arrayidx.i8 = getelementptr inbounds i8, ptr %3, i64 200
  tail call void @_ZN6icu_7513UnicodeStringC1ERKS0_(ptr noundef nonnull align 8 dereferenceable(64) %agg.result, ptr noundef nonnull align 8 dereferenceable(64) %arrayidx.i8)
  br label %return

sw.bb8:                                           ; preds = %entry
  %fSymbols9 = getelementptr inbounds i8, ptr %this, i64 56
  %4 = load ptr, ptr %fSymbols9, align 8
  %arrayidx.i11 = getelementptr inbounds i8, ptr %4, i64 776
  tail call void @_ZN6icu_7513UnicodeStringC1ERKS0_(ptr noundef nonnull align 8 dereferenceable(64) %agg.result, ptr noundef nonnull align 8 dereferenceable(64) %arrayidx.i11)
  br label %return

sw.bb10:                                          ; preds = %entry
  call void @_ZNK6icu_756number4impl22MutablePatternModifier29getCurrencySymbolForUnitWidthER10UErrorCode(ptr sret(%"class.icu_75::UnicodeString") align 8 %agg.result, ptr noundef nonnull align 8 dereferenceable(392) %this, ptr noundef nonnull align 4 dereferenceable(4) %localStatus)
  br label %return

sw.bb11:                                          ; preds = %entry
  %fCurrencySymbols = getelementptr inbounds i8, ptr %this, i64 72
  call void @_ZNK6icu_756number4impl15CurrencySymbols21getIntlCurrencySymbolER10UErrorCode(ptr sret(%"class.icu_75::UnicodeString") align 8 %agg.result, ptr noundef nonnull align 8 dereferenceable(232) %fCurrencySymbols, ptr noundef nonnull align 4 dereferenceable(4) %localStatus)
  br label %return

sw.bb12:                                          ; preds = %entry
  %fCurrencySymbols13 = getelementptr inbounds i8, ptr %this, i64 72
  %fPlural = getelementptr inbounds i8, ptr %this, i64 316
  %5 = load i32, ptr %fPlural, align 4
  call void @_ZNK6icu_756number4impl15CurrencySymbols13getPluralNameENS_14StandardPlural4FormER10UErrorCode(ptr sret(%"class.icu_75::UnicodeString") align 8 %agg.result, ptr noundef nonnull align 8 dereferenceable(232) %fCurrencySymbols13, i32 noundef %5, ptr noundef nonnull align 4 dereferenceable(4) %localStatus)
  br label %return

sw.bb14:                                          ; preds = %entry
  tail call void @_ZN6icu_7513UnicodeStringC1EPKDs(ptr noundef nonnull align 8 dereferenceable(64) %agg.result, ptr noundef nonnull @.str)
  br label %return

sw.bb15:                                          ; preds = %entry
  tail call void @_ZN6icu_7513UnicodeStringC1EPKDs(ptr noundef nonnull align 8 dereferenceable(64) %agg.result, ptr noundef nonnull @.str)
  br label %return

sw.default:                                       ; preds = %entry
  tail call void @abort() #23
  unreachable

return:                                           ; preds = %sw.bb15, %sw.bb14, %sw.bb12, %sw.bb11, %sw.bb10, %sw.bb8, %sw.bb6, %sw.bb4, %sw.bb2, %sw.bb
  ret void
}